target datalayout = "e-m:e-p270:32:32-p271:32:32-p272:64:64-i64:64-i128:128-f80:128-n8:16:32:64-S128"
target triple = "x86_64-pc-linux-gnu"

%class.b3Vector3 = type { %union.anon }
%union.anon = type { [4 x float] }
%struct.b3ContactConstraint4 = type { %class.b3Vector3, [4 x %class.b3Vector3], %class.b3Vector3, [4 x float], [4 x float], [4 x float], [2 x float], [2 x float], i32, i32, i32, i32 }
%struct.b3Contact4Data = type { [4 x %class.b3Vector3], %class.b3Vector3, i16, i16, i32, i32, i32, i32, i32, i32, i32 }
%class.b3Matrix3x3 = type { [3 x %class.b3Vector3] }
%struct.b3GpuConstraint4 = type { %struct.b3ContactConstraint4 }
%struct.b3Contact4 = type { %struct.b3Contact4Data }
%struct.b3RigidBodyData = type { %class.b3Vector3, %class.b3Quaternion, %class.b3Vector3, %class.b3Vector3, i32, float, float, float }
%class.b3Quaternion = type { %class.b3QuadWord }
%class.b3QuadWord = type { %union.anon.6 }
%union.anon.6 = type { [4 x float] }
%struct.b3InertiaData = type { %class.b3Matrix3x3, %class.b3Matrix3x3 }
%class.b3AlignedObjectArray.8 = type <{ [4 x i8], i32, i32, [4 x i8], ptr, i8, [7 x i8] }>

; Function Attrs: inlinehint mustprogress nounwind uwtable
define linkonce_odr dso_local noundef nonnull align 4 dereferenceable(4) ptr @_ZN20b3AlignedObjectArrayIjEixEi(ptr noundef nonnull align 8 dereferenceable(25) %0, i32 noundef %1) #8 comdat align 2 {
  %3 = alloca ptr, align 8
  %4 = alloca i32, align 4
  store ptr %0, ptr %3, align 8, !tbaa !134
  store i32 %1, ptr %4, align 4, !tbaa !15
  %5 = load ptr, ptr %3, align 8
  %6 = getelementptr inbounds nuw %class.b3AlignedObjectArray.8, ptr %5, i32 0, i32 4
  %7 = load ptr, ptr %6, align 8, !tbaa !142
  %8 = load i32, ptr %4, align 4, !tbaa !15
  %9 = sext i32 %8 to i64
  %10 = getelementptr inbounds i32, ptr %7, i64 %9
  ret ptr %10
}

; Function Attrs: inlinehint mustprogress nounwind uwtable
define linkonce_odr dso_local void @_ZN11b3Matrix3x3C2ERKS_(ptr noundef nonnull align 16 dereferenceable(48) %0, ptr noundef nonnull align 16 dereferenceable(48) %1) unnamed_addr #8 comdat align 2 {
  %3 = alloca ptr, align 8
  %4 = alloca ptr, align 8
  store ptr %0, ptr %3, align 8, !tbaa !107
  store ptr %1, ptr %4, align 8, !tbaa !107
  %5 = load ptr, ptr %3, align 8
  %6 = load ptr, ptr %4, align 8, !tbaa !107
  %7 = getelementptr inbounds nuw %class.b3Matrix3x3, ptr %6, i32 0, i32 0
  %8 = getelementptr inbounds [3 x %class.b3Vector3], ptr %7, i64 0, i64 0
  %9 = getelementptr inbounds nuw %class.b3Matrix3x3, ptr %5, i32 0, i32 0
  %10 = getelementptr inbounds [3 x %class.b3Vector3], ptr %9, i64 0, i64 0
  call void @llvm.memcpy.p0.p0.i64(ptr align 16 %10, ptr align 16 %8, i64 16, i1 false), !tbaa.struct !112
  %11 = load ptr, ptr %4, align 8, !tbaa !107
  %12 = getelementptr inbounds nuw %class.b3Matrix3x3, ptr %11, i32 0, i32 0
  %13 = getelementptr inbounds [3 x %class.b3Vector3], ptr %12, i64 0, i64 1
  %14 = getelementptr inbounds nuw %class.b3Matrix3x3, ptr %5, i32 0, i32 0
  %15 = getelementptr inbounds [3 x %class.b3Vector3], ptr %14, i64 0, i64 1
  call void @llvm.memcpy.p0.p0.i64(ptr align 16 %15, ptr align 16 %13, i64 16, i1 false), !tbaa.struct !112
  %16 = load ptr, ptr %4, align 8, !tbaa !107
  %17 = getelementptr inbounds nuw %class.b3Matrix3x3, ptr %16, i32 0, i32 0
  %18 = getelementptr inbounds [3 x %class.b3Vector3], ptr %17, i64 0, i64 2
  %19 = getelementptr inbounds nuw %class.b3Matrix3x3, ptr %5, i32 0, i32 0
  %20 = getelementptr inbounds [3 x %class.b3Vector3], ptr %19, i64 0, i64 2
  call void @llvm.memcpy.p0.p0.i64(ptr align 16 %20, ptr align 16 %18, i64 16, i1 false), !tbaa.struct !112
  ret void
}

; Function Attrs: mustprogress uwtable
define dso_local void @_Z25ContactToConstraintKernelP10b3Contact4P15b3RigidBodyDataP13b3InertiaDataP16b3GpuConstraint4ifffiR20b3AlignedObjectArrayIjE(ptr noundef %0, ptr noundef %1, ptr noundef %2, ptr noundef %3, i32 noundef %4, float noundef %5, float noundef %6, float noundef %7, i32 noundef %8, ptr noundef nonnull align 8 dereferenceable(25) %9) #0 {
  %11 = alloca ptr, align 8
  %12 = alloca ptr, align 8
  %13 = alloca ptr, align 8
  %14 = alloca ptr, align 8
  %15 = alloca i32, align 4
  %16 = alloca float, align 4
  %17 = alloca float, align 4
  %18 = alloca float, align 4
  %19 = alloca i32, align 4
  %20 = alloca ptr, align 8
  %21 = alloca i32, align 4
  %22 = alloca i32, align 4
  %23 = alloca %class.b3Vector3, align 16
  %24 = alloca %class.b3Vector3, align 16
  %25 = alloca %class.b3Vector3, align 16
  %26 = alloca float, align 4
  %27 = alloca %class.b3Matrix3x3, align 16
  %28 = alloca %class.b3Vector3, align 16
  %29 = alloca %class.b3Vector3, align 16
  %30 = alloca %class.b3Vector3, align 16
  %31 = alloca float, align 4
  %32 = alloca %class.b3Matrix3x3, align 16
  %33 = alloca %struct.b3GpuConstraint4, align 16
  %34 = alloca float, align 4
  %35 = alloca float, align 4
  store ptr %0, ptr %11, align 8, !tbaa !115
  store ptr %1, ptr %12, align 8, !tbaa !130
  store ptr %2, ptr %13, align 8, !tbaa !132
  store ptr %3, ptr %14, align 8, !tbaa !104
  store i32 %4, ptr %15, align 4, !tbaa !15
  store float %5, ptr %16, align 4, !tbaa !102
  store float %6, ptr %17, align 4, !tbaa !102
  store float %7, ptr %18, align 4, !tbaa !102
  store i32 %8, ptr %19, align 4, !tbaa !15
  store ptr %9, ptr %20, align 8, !tbaa !134
  %36 = load i32, ptr %19, align 4, !tbaa !15
  %37 = load i32, ptr %15, align 4, !tbaa !15
  %38 = icmp slt i32 %36, %37
  br i1 %38, label %39, label %150

39:                                               ; preds = %10
  call void @llvm.lifetime.start.p0(i64 4, ptr %21) #16
  %40 = load ptr, ptr %11, align 8, !tbaa !115
  %41 = load i32, ptr %19, align 4, !tbaa !15
  %42 = sext i32 %41 to i64
  %43 = getelementptr inbounds %struct.b3Contact4, ptr %40, i64 %42
  %44 = getelementptr inbounds nuw %struct.b3Contact4Data, ptr %43, i32 0, i32 5
  %45 = load i32, ptr %44, align 8, !tbaa !117
  %46 = call i32 @llvm.abs.i32(i32 %45, i1 true)
  store i32 %46, ptr %21, align 4, !tbaa !15
  call void @llvm.lifetime.start.p0(i64 4, ptr %22) #16
  %47 = load ptr, ptr %11, align 8, !tbaa !115
  %48 = load i32, ptr %19, align 4, !tbaa !15
  %49 = sext i32 %48 to i64
  %50 = getelementptr inbounds %struct.b3Contact4, ptr %47, i64 %49
  %51 = getelementptr inbounds nuw %struct.b3Contact4Data, ptr %50, i32 0, i32 6
  %52 = load i32, ptr %51, align 4, !tbaa !123
  %53 = call i32 @llvm.abs.i32(i32 %52, i1 true)
  store i32 %53, ptr %22, align 4, !tbaa !15
  call void @llvm.lifetime.start.p0(i64 16, ptr %23) #16
  %54 = load ptr, ptr %12, align 8, !tbaa !130
  %55 = load i32, ptr %21, align 4, !tbaa !15
  %56 = sext i32 %55 to i64
  %57 = getelementptr inbounds %struct.b3RigidBodyData, ptr %54, i64 %56
  %58 = getelementptr inbounds nuw %struct.b3RigidBodyData, ptr %57, i32 0, i32 0
  call void @llvm.memcpy.p0.p0.i64(ptr align 16 %23, ptr align 16 %58, i64 16, i1 false), !tbaa.struct !112
  call void @llvm.lifetime.start.p0(i64 16, ptr %24) #16
  %59 = load ptr, ptr %12, align 8, !tbaa !130
  %60 = load i32, ptr %21, align 4, !tbaa !15
  %61 = sext i32 %60 to i64
  %62 = getelementptr inbounds %struct.b3RigidBodyData, ptr %59, i64 %61
  %63 = getelementptr inbounds nuw %struct.b3RigidBodyData, ptr %62, i32 0, i32 2
  call void @llvm.memcpy.p0.p0.i64(ptr align 16 %24, ptr align 16 %63, i64 16, i1 false), !tbaa.struct !112
  call void @llvm.lifetime.start.p0(i64 16, ptr %25) #16
  %64 = load ptr, ptr %12, align 8, !tbaa !130
  %65 = load i32, ptr %21, align 4, !tbaa !15
  %66 = sext i32 %65 to i64
  %67 = getelementptr inbounds %struct.b3RigidBodyData, ptr %64, i64 %66
  %68 = getelementptr inbounds nuw %struct.b3RigidBodyData, ptr %67, i32 0, i32 3
  call void @llvm.memcpy.p0.p0.i64(ptr align 16 %25, ptr align 16 %68, i64 16, i1 false), !tbaa.struct !112
  call void @llvm.lifetime.start.p0(i64 4, ptr %26) #16
  %69 = load ptr, ptr %12, align 8, !tbaa !130
  %70 = load i32, ptr %21, align 4, !tbaa !15
  %71 = sext i32 %70 to i64
  %72 = getelementptr inbounds %struct.b3RigidBodyData, ptr %69, i64 %71
  %73 = getelementptr inbounds nuw %struct.b3RigidBodyData, ptr %72, i32 0, i32 5
  %74 = load float, ptr %73, align 4, !tbaa !136
  store float %74, ptr %26, align 4, !tbaa !102
  call void @llvm.lifetime.start.p0(i64 48, ptr %27) #16
  %75 = load ptr, ptr %13, align 8, !tbaa !132
  %76 = load i32, ptr %21, align 4, !tbaa !15
  %77 = sext i32 %76 to i64
  %78 = getelementptr inbounds %struct.b3InertiaData, ptr %75, i64 %77
  %79 = getelementptr inbounds nuw %struct.b3InertiaData, ptr %78, i32 0, i32 0
  call void @_ZN11b3Matrix3x3C2ERKS_(ptr noundef nonnull align 16 dereferenceable(48) %27, ptr noundef nonnull align 16 dereferenceable(48) %79)
  call void @llvm.lifetime.start.p0(i64 16, ptr %28) #16
  %80 = load ptr, ptr %12, align 8, !tbaa !130
  %81 = load i32, ptr %22, align 4, !tbaa !15
  %82 = sext i32 %81 to i64
  %83 = getelementptr inbounds %struct.b3RigidBodyData, ptr %80, i64 %82
  %84 = getelementptr inbounds nuw %struct.b3RigidBodyData, ptr %83, i32 0, i32 0
  call void @llvm.memcpy.p0.p0.i64(ptr align 16 %28, ptr align 16 %84, i64 16, i1 false), !tbaa.struct !112
  call void @llvm.lifetime.start.p0(i64 16, ptr %29) #16
  %85 = load ptr, ptr %12, align 8, !tbaa !130
  %86 = load i32, ptr %22, align 4, !tbaa !15
  %87 = sext i32 %86 to i64
  %88 = getelementptr inbounds %struct.b3RigidBodyData, ptr %85, i64 %87
  %89 = getelementptr inbounds nuw %struct.b3RigidBodyData, ptr %88, i32 0, i32 2
  call void @llvm.memcpy.p0.p0.i64(ptr align 16 %29, ptr align 16 %89, i64 16, i1 false), !tbaa.struct !112
  call void @llvm.lifetime.start.p0(i64 16, ptr %30) #16
  %90 = load ptr, ptr %12, align 8, !tbaa !130
  %91 = load i32, ptr %22, align 4, !tbaa !15
  %92 = sext i32 %91 to i64
  %93 = getelementptr inbounds %struct.b3RigidBodyData, ptr %90, i64 %92
  %94 = getelementptr inbounds nuw %struct.b3RigidBodyData, ptr %93, i32 0, i32 3
  call void @llvm.memcpy.p0.p0.i64(ptr align 16 %30, ptr align 16 %94, i64 16, i1 false), !tbaa.struct !112
  call void @llvm.lifetime.start.p0(i64 4, ptr %31) #16
  %95 = load ptr, ptr %12, align 8, !tbaa !130
  %96 = load i32, ptr %22, align 4, !tbaa !15
  %97 = sext i32 %96 to i64
  %98 = getelementptr inbounds %struct.b3RigidBodyData, ptr %95, i64 %97
  %99 = getelementptr inbounds nuw %struct.b3RigidBodyData, ptr %98, i32 0, i32 5
  %100 = load float, ptr %99, align 4, !tbaa !136
  store float %100, ptr %31, align 4, !tbaa !102
  call void @llvm.lifetime.start.p0(i64 48, ptr %32) #16
  %101 = load ptr, ptr %13, align 8, !tbaa !132
  %102 = load i32, ptr %22, align 4, !tbaa !15
  %103 = sext i32 %102 to i64
  %104 = getelementptr inbounds %struct.b3InertiaData, ptr %101, i64 %103
  %105 = getelementptr inbounds nuw %struct.b3InertiaData, ptr %104, i32 0, i32 0
  call void @_ZN11b3Matrix3x3C2ERKS_(ptr noundef nonnull align 16 dereferenceable(48) %32, ptr noundef nonnull align 16 dereferenceable(48) %105)
  call void @llvm.lifetime.start.p0(i64 176, ptr %33) #16
  call void @llvm.lifetime.start.p0(i64 4, ptr %34) #16
  %106 = load float, ptr %26, align 4, !tbaa !102
  %107 = fcmp une float %106, 0.000000e+00
  br i1 %107, label %108, label %114

108:                                              ; preds = %39
  %109 = load ptr, ptr %20, align 8, !tbaa !134
  %110 = load i32, ptr %21, align 4, !tbaa !15
  %111 = call noundef nonnull align 4 dereferenceable(4) ptr @_ZN20b3AlignedObjectArrayIjEixEi(ptr noundef nonnull align 8 dereferenceable(25) %109, i32 noundef %110)
  %112 = load i32, ptr %111, align 4, !tbaa !15
  %113 = uitofp i32 %112 to float
  br label %115

114:                                              ; preds = %39
  br label %115

115:                                              ; preds = %114, %108
  %116 = phi float [ %113, %108 ], [ 1.000000e+00, %114 ]
  store float %116, ptr %34, align 4, !tbaa !102
  call void @llvm.lifetime.start.p0(i64 4, ptr %35) #16
  %117 = load float, ptr %31, align 4, !tbaa !102
  %118 = fcmp une float %117, 0.000000e+00
  br i1 %118, label %119, label %125

119:                                              ; preds = %115
  %120 = load ptr, ptr %20, align 8, !tbaa !134
  %121 = load i32, ptr %22, align 4, !tbaa !15
  %122 = call noundef nonnull align 4 dereferenceable(4) ptr @_ZN20b3AlignedObjectArrayIjEixEi(ptr noundef nonnull align 8 dereferenceable(25) %120, i32 noundef %121)
  %123 = load i32, ptr %122, align 4, !tbaa !15
  %124 = uitofp i32 %123 to float
  br label %126

125:                                              ; preds = %115
  br label %126

126:                                              ; preds = %125, %119
  %127 = phi float [ %124, %119 ], [ 1.000000e+00, %125 ]
  store float %127, ptr %35, align 4, !tbaa !102
  %128 = load float, ptr %26, align 4, !tbaa !102
  %129 = load float, ptr %31, align 4, !tbaa !102
  %130 = load ptr, ptr %11, align 8, !tbaa !115
  %131 = load i32, ptr %19, align 4, !tbaa !15
  %132 = sext i32 %131 to i64
  %133 = getelementptr inbounds %struct.b3Contact4, ptr %130, i64 %132
  %134 = load float, ptr %16, align 4, !tbaa !102
  %135 = load float, ptr %17, align 4, !tbaa !102
  %136 = load float, ptr %18, align 4, !tbaa !102
  %137 = load float, ptr %34, align 4, !tbaa !102
  %138 = load float, ptr %35, align 4, !tbaa !102
  call void @_Z14setConstraint4RK9b3Vector3S1_S1_fRK11b3Matrix3x3S1_S1_S1_fS4_P10b3Contact4fffffP16b3GpuConstraint4(ptr noundef nonnull align 16 dereferenceable(16) %23, ptr noundef nonnull align 16 dereferenceable(16) %24, ptr noundef nonnull align 16 dereferenceable(16) %25, float noundef %128, ptr noundef nonnull align 16 dereferenceable(48) %27, ptr noundef nonnull align 16 dereferenceable(16) %28, ptr noundef nonnull align 16 dereferenceable(16) %29, ptr noundef nonnull align 16 dereferenceable(16) %30, float noundef %129, ptr noundef nonnull align 16 dereferenceable(48) %32, ptr noundef %133, float noundef %134, float noundef %135, float noundef %136, float noundef %137, float noundef %138, ptr noundef %33)
  %139 = load ptr, ptr %11, align 8, !tbaa !115
  %140 = load i32, ptr %19, align 4, !tbaa !15
  %141 = sext i32 %140 to i64
  %142 = getelementptr inbounds %struct.b3Contact4, ptr %139, i64 %141
  %143 = getelementptr inbounds nuw %struct.b3Contact4Data, ptr %142, i32 0, i32 4
  %144 = load i32, ptr %143, align 4, !tbaa !140
  %145 = getelementptr inbounds nuw %struct.b3ContactConstraint4, ptr %33, i32 0, i32 10
  store i32 %144, ptr %145, align 8, !tbaa !141
  %146 = load ptr, ptr %14, align 8, !tbaa !104
  %147 = load i32, ptr %19, align 4, !tbaa !15
  %148 = sext i32 %147 to i64
  %149 = getelementptr inbounds %struct.b3GpuConstraint4, ptr %146, i64 %148
  call void @llvm.memcpy.p0.p0.i64(ptr align 16 %149, ptr align 16 %33, i64 176, i1 false)
  call void @llvm.lifetime.end.p0(i64 4, ptr %35) #16
  call void @llvm.lifetime.end.p0(i64 4, ptr %34) #16
  call void @llvm.lifetime.end.p0(i64 176, ptr %33) #16
  call void @llvm.lifetime.end.p0(i64 48, ptr %32) #16
  call void @llvm.lifetime.end.p0(i64 4, ptr %31) #16
  call void @llvm.lifetime.end.p0(i64 16, ptr %30) #16
  call void @llvm.lifetime.end.p0(i64 16, ptr %29) #16
  call void @llvm.lifetime.end.p0(i64 16, ptr %28) #16
  call void @llvm.lifetime.end.p0(i64 48, ptr %27) #16
  call void @llvm.lifetime.end.p0(i64 4, ptr %26) #16
  call void @llvm.lifetime.end.p0(i64 16, ptr %25) #16
  call void @llvm.lifetime.end.p0(i64 16, ptr %24) #16
  call void @llvm.lifetime.end.p0(i64 16, ptr %23) #16
  call void @llvm.lifetime.end.p0(i64 4, ptr %22) #16
  call void @llvm.lifetime.end.p0(i64 4, ptr %21) #16
  br label %150

150:                                              ; preds = %126, %10
  ret void
}