; Function Attrs: mustprogress nofree norecurse nosync nounwind memory(read, argmem: readwrite, inaccessiblemem: none) uwtable
define dso_local void @_Z25ContactToConstraintKernelP10b3Contact4P15b3RigidBodyDataP13b3InertiaDataP16b3GpuConstraint4ifffiR20b3AlignedObjectArrayIjE(ptr noundef readonly captures(none) %0, ptr noundef readonly captures(none) %1, ptr noundef readonly captures(none) %2, ptr noundef writeonly captures(none) %3, i32 noundef %4, float noundef %5, float noundef %6, float noundef %7, i32 noundef %8, ptr noundef nonnull readonly align 8 captures(none) dereferenceable(25) %9) local_unnamed_addr #13 {
  %11 = alloca %class.b3Matrix3x3, align 16
  %12 = alloca %class.b3Matrix3x3, align 16
  %13 = alloca %struct.b3GpuConstraint4, align 16
  %14 = icmp slt i32 %8, %4
  br i1 %14, label %15, label %68

15:                                               ; preds = %10
  %16 = sext i32 %8 to i64
  %17 = getelementptr inbounds %struct.b3Contact4, ptr %0, i64 %16
  %18 = getelementptr inbounds nuw i8, ptr %17, i64 88
  %19 = load i32, ptr %18, align 8, !tbaa !80
  %20 = tail call i32 @llvm.abs.i32(i32 %19, i1 true)
  %21 = getelementptr inbounds nuw i8, ptr %17, i64 92
  %22 = load i32, ptr %21, align 4, !tbaa !86
  %23 = tail call i32 @llvm.abs.i32(i32 %22, i1 true)
  %24 = zext nneg i32 %20 to i64
  %25 = getelementptr inbounds nuw %struct.b3RigidBodyData, ptr %1, i64 %24
  %26 = getelementptr inbounds nuw i8, ptr %25, i64 32
  %27 = getelementptr inbounds nuw i8, ptr %25, i64 48
  %28 = getelementptr inbounds nuw i8, ptr %25, i64 68
  %29 = load float, ptr %28, align 4, !tbaa !93
  call void @llvm.lifetime.start.p0(i64 48, ptr nonnull %11) #21
  %30 = getelementptr inbounds nuw %struct.b3InertiaData, ptr %2, i64 %24
  call void @llvm.memcpy.p0.p0.i64(ptr noundef nonnull align 16 dereferenceable(48) %11, ptr noundef nonnull align 16 dereferenceable(48) %30, i64 16, i1 false), !tbaa.struct !88
  %31 = getelementptr inbounds nuw i8, ptr %30, i64 16
  %32 = getelementptr inbounds nuw i8, ptr %11, i64 16
  call void @llvm.memcpy.p0.p0.i64(ptr noundef nonnull align 16 dereferenceable(16) %32, ptr noundef nonnull align 16 dereferenceable(16) %31, i64 16, i1 false), !tbaa.struct !88
  %33 = getelementptr inbounds nuw i8, ptr %30, i64 32
  %34 = getelementptr inbounds nuw i8, ptr %11, i64 32
  call void @llvm.memcpy.p0.p0.i64(ptr noundef nonnull align 16 dereferenceable(16) %34, ptr noundef nonnull align 16 dereferenceable(16) %33, i64 16, i1 false), !tbaa.struct !88
  %35 = zext nneg i32 %23 to i64
  %36 = getelementptr inbounds nuw %struct.b3RigidBodyData, ptr %1, i64 %35
  %37 = getelementptr inbounds nuw i8, ptr %36, i64 32
  %38 = getelementptr inbounds nuw i8, ptr %36, i64 48
  %39 = getelementptr inbounds nuw i8, ptr %36, i64 68
  %40 = load float, ptr %39, align 4, !tbaa !93
  call void @llvm.lifetime.start.p0(i64 48, ptr nonnull %12) #21
  %41 = getelementptr inbounds nuw %struct.b3InertiaData, ptr %2, i64 %35
  call void @llvm.memcpy.p0.p0.i64(ptr noundef nonnull align 16 dereferenceable(48) %12, ptr noundef nonnull align 16 dereferenceable(48) %41, i64 16, i1 false), !tbaa.struct !88
  %42 = getelementptr inbounds nuw i8, ptr %41, i64 16
  %43 = getelementptr inbounds nuw i8, ptr %12, i64 16
  call void @llvm.memcpy.p0.p0.i64(ptr noundef nonnull align 16 dereferenceable(16) %43, ptr noundef nonnull align 16 dereferenceable(16) %42, i64 16, i1 false), !tbaa.struct !88
  %44 = getelementptr inbounds nuw i8, ptr %41, i64 32
  %45 = getelementptr inbounds nuw i8, ptr %12, i64 32
  call void @llvm.memcpy.p0.p0.i64(ptr noundef nonnull align 16 dereferenceable(16) %45, ptr noundef nonnull align 16 dereferenceable(16) %44, i64 16, i1 false), !tbaa.struct !88
  call void @llvm.lifetime.start.p0(i64 176, ptr nonnull %13) #21
  %46 = fcmp une float %29, 0.000000e+00
  br i1 %46, label %47, label %53

47:                                               ; preds = %15
  %48 = getelementptr inbounds nuw i8, ptr %9, i64 16
  %49 = load ptr, ptr %48, align 8, !tbaa !97
  %50 = getelementptr inbounds nuw i32, ptr %49, i64 %24
  %51 = load i32, ptr %50, align 4, !tbaa !101
  %52 = uitofp i32 %51 to float
  br label %53

53:                                               ; preds = %15, %47
  %54 = phi float [ %52, %47 ], [ 1.000000e+00, %15 ]
  %55 = fcmp une float %40, 0.000000e+00
  br i1 %55, label %56, label %62

56:                                               ; preds = %53
  %57 = getelementptr inbounds nuw i8, ptr %9, i64 16
  %58 = load ptr, ptr %57, align 8, !tbaa !97
  %59 = getelementptr inbounds nuw i32, ptr %58, i64 %35
  %60 = load i32, ptr %59, align 4, !tbaa !101
  %61 = uitofp i32 %60 to float
  br label %62

62:                                               ; preds = %53, %56
  %63 = phi float [ %61, %56 ], [ 1.000000e+00, %53 ]
  call void @_Z14setConstraint4RK9b3Vector3S1_S1_fRK11b3Matrix3x3S1_S1_S1_fS4_P10b3Contact4fffffP16b3GpuConstraint4(ptr noundef nonnull align 16 dereferenceable(16) %25, ptr noundef nonnull align 16 dereferenceable(16) %26, ptr noundef nonnull align 16 dereferenceable(16) %27, float noundef %29, ptr noundef nonnull align 16 dereferenceable(48) %11, ptr noundef nonnull align 16 dereferenceable(16) %36, ptr noundef nonnull align 16 dereferenceable(16) %37, ptr noundef nonnull align 16 dereferenceable(16) %38, float noundef %40, ptr noundef nonnull align 16 dereferenceable(48) %12, ptr noundef nonnull %17, float noundef %5, float noundef %6, float noundef %7, float noundef %54, float noundef %63, ptr noundef nonnull %13)
  %64 = getelementptr inbounds nuw i8, ptr %17, i64 84
  %65 = load i32, ptr %64, align 4, !tbaa !102
  %66 = getelementptr inbounds nuw i8, ptr %13, i64 168
  store i32 %65, ptr %66, align 8, !tbaa !103
  %67 = getelementptr inbounds %struct.b3GpuConstraint4, ptr %3, i64 %16
  call void @llvm.memcpy.p0.p0.i64(ptr noundef nonnull align 16 dereferenceable(176) %67, ptr noundef nonnull align 16 dereferenceable(176) %13, i64 176, i1 false)
  call void @llvm.lifetime.end.p0(i64 176, ptr nonnull %13) #21
  call void @llvm.lifetime.end.p0(i64 48, ptr nonnull %12) #21
  call void @llvm.lifetime.end.p0(i64 48, ptr nonnull %11) #21
  br label %68

68:                                               ; preds = %62, %10
  ret void
}